target datalayout = "e-m:e-p270:32:32-p271:32:32-p272:64:64-i64:64-i128:128-f80:128-n8:16:32:64-S128"
target triple = "x86_64-pc-linux-gnu"

%struct._object = type { i64, ptr }
%"struct.nanobind::detail::nb_internals" = type { ptr, ptr, ptr, ptr, ptr, ptr, %"struct.nanobind::detail::nb_maybe_atomic", ptr, i8, %"struct.nanobind::detail::nb_maybe_atomic", [1 x %"struct.nanobind::detail::nb_shard"], %"class.tsl::robin_map.0", %"class.tsl::robin_map.10", %"class.tsl::robin_map", %"struct.nanobind::detail::nb_translator_seq", i8, i8, ptr, i64 }
%"struct.nanobind::detail::nb_maybe_atomic" = type { ptr }
%"struct.nanobind::detail::nb_shard" = type { %"class.tsl::robin_map", %"class.tsl::robin_map" }
%"class.tsl::robin_map.0" = type { %"class.tsl::detail_robin_hash::robin_hash.1" }
%"class.tsl::detail_robin_hash::robin_hash.1" = type <{ %"class.tsl::rh::power_of_two_growth_policy", %"class.std::vector.4", ptr, i64, i64, i64, float, float, i8, i8, [6 x i8] }>
%"class.tsl::rh::power_of_two_growth_policy" = type { i64 }
%"class.std::vector.4" = type { %"struct.std::_Vector_base.5" }
%"struct.std::_Vector_base.5" = type { %"struct.std::_Vector_base<tsl::detail_robin_hash::bucket_entry<std::pair<const std::type_info *, nanobind::detail::type_data *>, true>, std::allocator<tsl::detail_robin_hash::bucket_entry<std::pair<const std::type_info *, nanobind::detail::type_data *>, true>>>::_Vector_impl" }
%"struct.std::_Vector_base<tsl::detail_robin_hash::bucket_entry<std::pair<const std::type_info *, nanobind::detail::type_data *>, true>, std::allocator<tsl::detail_robin_hash::bucket_entry<std::pair<const std::type_info *, nanobind::detail::type_data *>, true>>>::_Vector_impl" = type { %"struct.std::_Vector_base<tsl::detail_robin_hash::bucket_entry<std::pair<const std::type_info *, nanobind::detail::type_data *>, true>, std::allocator<tsl::detail_robin_hash::bucket_entry<std::pair<const std::type_info *, nanobind::detail::type_data *>, true>>>::_Vector_impl_data" }
%"struct.std::_Vector_base<tsl::detail_robin_hash::bucket_entry<std::pair<const std::type_info *, nanobind::detail::type_data *>, true>, std::allocator<tsl::detail_robin_hash::bucket_entry<std::pair<const std::type_info *, nanobind::detail::type_data *>, true>>>::_Vector_impl_data" = type { ptr, ptr, ptr }
%"class.tsl::robin_map.10" = type { %"class.tsl::detail_robin_hash::robin_hash.11" }
%"class.tsl::detail_robin_hash::robin_hash.11" = type <{ %"class.tsl::rh::power_of_two_growth_policy", %"class.std::vector.4", ptr, i64, i64, i64, float, float, i8, i8, [6 x i8] }>
%"class.tsl::robin_map" = type { %"class.tsl::detail_robin_hash::robin_hash" }
%"class.tsl::detail_robin_hash::robin_hash" = type <{ %"class.tsl::rh::power_of_two_growth_policy", %"class.std::vector", ptr, i64, i64, i64, float, float, i8, i8, [6 x i8] }>
%"class.std::vector" = type { %"struct.std::_Vector_base" }
%"struct.std::_Vector_base" = type { %"struct.std::_Vector_base<tsl::detail_robin_hash::bucket_entry<std::pair<void *, void *>, true>, std::allocator<tsl::detail_robin_hash::bucket_entry<std::pair<void *, void *>, true>>>::_Vector_impl" }
%"struct.std::_Vector_base<tsl::detail_robin_hash::bucket_entry<std::pair<void *, void *>, true>, std::allocator<tsl::detail_robin_hash::bucket_entry<std::pair<void *, void *>, true>>>::_Vector_impl" = type { %"struct.std::_Vector_base<tsl::detail_robin_hash::bucket_entry<std::pair<void *, void *>, true>, std::allocator<tsl::detail_robin_hash::bucket_entry<std::pair<void *, void *>, true>>>::_Vector_impl_data" }
%"struct.std::_Vector_base<tsl::detail_robin_hash::bucket_entry<std::pair<void *, void *>, true>, std::allocator<tsl::detail_robin_hash::bucket_entry<std::pair<void *, void *>, true>>>::_Vector_impl_data" = type { ptr, ptr, ptr }
%"struct.nanobind::detail::nb_translator_seq" = type { ptr, ptr, ptr }
%"struct.nanobind::detail::nb_bound_method" = type { %struct._object, ptr, ptr, ptr }

@_ZN8nanobind6detail9internalsE = external hidden global ptr, align 8

; Function Attrs: inlinehint mustprogress nounwind uwtable
define internal void @_ZL10_Py_INCREFP7_object(ptr noundef %0) #12 {
  %2 = alloca ptr, align 8
  store ptr %0, ptr %2, align 8
  %3 = load ptr, ptr %2, align 8
  %4 = getelementptr inbounds nuw %struct._object, ptr %3, i32 0, i32 0
  %5 = load i64, ptr %4, align 8
  %6 = add nsw i64 %5, 1
  store i64 %6, ptr %4, align 8
  ret void
}

; Function Attrs: mustprogress uwtable
define hidden noundef ptr @_ZN8nanobind6detail19nb_method_descr_getEP7_objectS2_S2_(ptr noundef %0, ptr noundef %1, ptr noundef %2) #0 {
  %4 = alloca ptr, align 8
  %5 = alloca ptr, align 8
  %6 = alloca ptr, align 8
  %7 = alloca ptr, align 8
  %8 = alloca ptr, align 8
  store ptr %0, ptr %5, align 8
  store ptr %1, ptr %6, align 8
  store ptr %2, ptr %7, align 8
  %9 = load ptr, ptr %6, align 8
  %10 = icmp ne ptr %9, null
  br i1 %10, label %11, label %27

11:                                               ; preds = %3
  call void @llvm.lifetime.start.p0(i64 8, ptr %8) #22
  %12 = load ptr, ptr @_ZN8nanobind6detail9internalsE, align 8
  %13 = getelementptr inbounds nuw %"struct.nanobind::detail::nb_internals", ptr %12, i32 0, i32 5
  %14 = load ptr, ptr %13, align 8
  %15 = call ptr @_PyObject_GC_New(ptr noundef %14)
  store ptr %15, ptr %8, align 8
  %16 = load ptr, ptr %5, align 8
  %17 = load ptr, ptr %8, align 8
  %18 = getelementptr inbounds nuw %"struct.nanobind::detail::nb_bound_method", ptr %17, i32 0, i32 2
  store ptr %16, ptr %18, align 8
  %19 = load ptr, ptr %6, align 8
  %20 = load ptr, ptr %8, align 8
  %21 = getelementptr inbounds nuw %"struct.nanobind::detail::nb_bound_method", ptr %20, i32 0, i32 3
  store ptr %19, ptr %21, align 8
  %22 = load ptr, ptr %8, align 8
  %23 = getelementptr inbounds nuw %"struct.nanobind::detail::nb_bound_method", ptr %22, i32 0, i32 1
  store ptr @_ZN8nanobind6detailL26nb_bound_method_vectorcallEP7_objectPKS2_mS2_, ptr %23, align 8
  %24 = load ptr, ptr %5, align 8
  call void @_ZL10_Py_INCREFP7_object(ptr noundef %24)
  %25 = load ptr, ptr %6, align 8
  call void @_ZL10_Py_INCREFP7_object(ptr noundef %25)
  %26 = load ptr, ptr %8, align 8
  store ptr %26, ptr %4, align 8
  call void @llvm.lifetime.end.p0(i64 8, ptr %8) #22
  br label %30

27:                                               ; preds = %3
  %28 = load ptr, ptr %5, align 8
  call void @_ZL10_Py_INCREFP7_object(ptr noundef %28)
  %29 = load ptr, ptr %5, align 8
  store ptr %29, ptr %4, align 8
  br label %30

30:                                               ; preds = %27, %11
  %31 = load ptr, ptr %4, align 8
  ret ptr %31
}