; Function Attrs: mustprogress uwtable
define hidden noundef ptr @_ZN8nanobind6detail19nb_method_descr_getEP7_objectS2_S2_(ptr noundef %0, ptr noundef %1, ptr noundef readnone captures(none) %2) local_unnamed_addr #0 {
  %.not = icmp eq ptr %1, null
  br i1 %.not, label %14, label %4

4:                                                ; preds = %3
  %5 = load ptr, ptr @_ZN8nanobind6detail9internalsE, align 8
  %6 = getelementptr inbounds nuw i8, ptr %5, i64 40
  %7 = load ptr, ptr %6, align 8
  %8 = tail call ptr @_PyObject_GC_New(ptr noundef %7)
  %9 = getelementptr inbounds nuw i8, ptr %8, i64 24
  store ptr %0, ptr %9, align 8
  %10 = getelementptr inbounds nuw i8, ptr %8, i64 32
  store ptr %1, ptr %10, align 8
  %11 = getelementptr inbounds nuw i8, ptr %8, i64 16
  store ptr @_ZN8nanobind6detailL26nb_bound_method_vectorcallEP7_objectPKS2_mS2_, ptr %11, align 8
  %12 = load i64, ptr %0, align 8
  %13 = add nsw i64 %12, 1
  store i64 %13, ptr %0, align 8
  br label %14

14:                                               ; preds = %3, %4
  %.sink = phi ptr [ %1, %4 ], [ %0, %3 ]
  %.0 = phi ptr [ %8, %4 ], [ %0, %3 ]
  %15 = load i64, ptr %.sink, align 8
  %16 = add nsw i64 %15, 1
  store i64 %16, ptr %.sink, align 8
  ret ptr %.0
}